
../dump/ledc.elf：     文件格式 elf32-littlearm


Disassembly of section .text:

87800000 <_bss_start>:
87800000:	87800208 	strhi	r0, [r0, r8, lsl #4]

87800004 <_bss_end>:
87800004:	87800208 	strhi	r0, [r0, r8, lsl #4]

87800008 <_start>:
87800008:	e10f0000 	mrs	r0, CPSR
8780000c:	e3c0001f 	bic	r0, r0, #31
87800010:	e3800013 	orr	r0, r0, #19
87800014:	e129f000 	msr	CPSR_fc, r0
87800018:	e59f0018 	ldr	r0, [pc, #24]	; 87800038 <bss_loop+0x14>
8780001c:	e59f1018 	ldr	r1, [pc, #24]	; 8780003c <bss_loop+0x18>
87800020:	e3a02000 	mov	r2, #0

87800024 <bss_loop>:
87800024:	e8a00004 	stmia	r0!, {r2}
87800028:	e1500001 	cmp	r0, r1
8780002c:	dafffffc 	ble	87800024 <bss_loop>
87800030:	e59fd008 	ldr	sp, [pc, #8]	; 87800040 <bss_loop+0x1c>
87800034:	ea000071 	b	87800200 <__main_from_arm>
87800038:	87800000 	strhi	r0, [r0, r0]
8780003c:	87800004 	strhi	r0, [r0, r4]
87800040:	80200000 	eorhi	r0, r0, r0
87800044:	00001e41 	andeq	r1, r0, r1, asr #28
87800048:	61656100 	cmnvs	r5, r0, lsl #2
8780004c:	01006962 	tsteq	r0, r2, ror #18
87800050:	00000014 	andeq	r0, r0, r4, lsl r0
87800054:	412d3705 	teqmi	sp, r5, lsl #14
87800058:	070a0600 	streq	r0, [sl, -r0, lsl #12]
8780005c:	09010841 	stmdbeq	r1, {r0, r6, fp}
87800060:	00040a02 	andeq	r0, r4, r2, lsl #20

87800064 <main>:
87800064:	b508      	push	{r3, lr}
87800066:	f000 f8a9 	bl	878001bc <clk_enable>
8780006a:	f000 f8af 	bl	878001cc <led_init>
8780006e:	f000 f855 	bl	8780011c <beep_init>
87800072:	f000 f83f 	bl	878000f4 <led_on>
87800076:	2001      	movs	r0, #1
87800078:	f000 f86c 	bl	87800154 <beep_control>
8780007c:	f44f 707a 	mov.w	r0, #1000	; 0x3e8
87800080:	f000 f888 	bl	87800194 <delay_ms>
87800084:	2000      	movs	r0, #0
87800086:	f000 f865 	bl	87800154 <beep_control>
8780008a:	f000 f83d 	bl	87800108 <led_off>
8780008e:	f44f 707a 	mov.w	r0, #1000	; 0x3e8
87800092:	f000 f87f 	bl	87800194 <delay_ms>
87800096:	e7ec      	b.n	87800072 <main+0xe>
87800098:	3a434347 	bcc	888d0dbc <__bss_end+0x10d0bb4>
8780009c:	694c2820 	stmdbvs	ip, {r5, fp, sp}^
878000a0:	6f72616e 	svcvs	0x0072616e
878000a4:	43434720 	movtmi	r4, #14112	; 0x3720
878000a8:	392e3420 	stmdbcc	lr!, {r5, sl, ip, sp}
878000ac:	3130322d 	teqcc	r0, sp, lsr #4
878000b0:	31302e37 	teqcc	r0, r7, lsr lr
878000b4:	2e342029 	cdpcs	0, 3, cr2, cr4, cr9, {1}
878000b8:	00342e39 	eorseq	r2, r4, r9, lsr lr
878000bc:	00003441 	andeq	r3, r0, r1, asr #8
878000c0:	61656100 	cmnvs	r5, r0, lsl #2
878000c4:	01006962 	tsteq	r0, r2, ror #18
878000c8:	0000002a 	andeq	r0, r0, sl, lsr #32
878000cc:	412d3705 	teqmi	sp, r5, lsl #14
878000d0:	070a0600 	streq	r0, [sl, -r0, lsl #12]
878000d4:	09010841 	stmdbeq	r1, {r0, r6, fp}
878000d8:	12040a02 	andne	r0, r4, #8192	; 0x2000
878000dc:	15011404 	strne	r1, [r1, #-1028]	; 0x404
878000e0:	18031701 	stmdane	r3, {r0, r8, r9, sl, ip}
878000e4:	1a011901 	bne	878464f0 <__bss_end+0x462e8>
878000e8:	1c031b02 	stcne	11, cr1, [r3], {2}
878000ec:	22021e01 	andcs	r1, r2, #1, 28
878000f0:	00000001 	andeq	r0, r0, r1

878000f4 <led_on>:
878000f4:	f44f 4340 	mov.w	r3, #49152	; 0xc000
878000f8:	f2c0 2309 	movt	r3, #521	; 0x209
878000fc:	681a      	ldr	r2, [r3, #0]
878000fe:	f022 0208 	bic.w	r2, r2, #8
87800102:	601a      	str	r2, [r3, #0]
87800104:	4770      	bx	lr
87800106:	bf00      	nop

87800108 <led_off>:
87800108:	f44f 4340 	mov.w	r3, #49152	; 0xc000
8780010c:	f2c0 2309 	movt	r3, #521	; 0x209
87800110:	681a      	ldr	r2, [r3, #0]
87800112:	f042 0208 	orr.w	r2, r2, #8
87800116:	601a      	str	r2, [r3, #0]
87800118:	4770      	bx	lr
8780011a:	bf00      	nop

8780011c <beep_init>:
8780011c:	210c      	movs	r1, #12
8780011e:	2250      	movs	r2, #80	; 0x50
87800120:	f44f 4340 	mov.w	r3, #49152	; 0xc000
87800124:	b410      	push	{r4}
87800126:	f2c0 230a 	movt	r3, #522	; 0x20a
8780012a:	2405      	movs	r4, #5
8780012c:	f2c0 2229 	movt	r2, #553	; 0x229
87800130:	f2c0 2129 	movt	r1, #553	; 0x229
87800134:	f241 00b0 	movw	r0, #4272	; 0x10b0
87800138:	600c      	str	r4, [r1, #0]
8780013a:	6010      	str	r0, [r2, #0]
8780013c:	685a      	ldr	r2, [r3, #4]
8780013e:	f85d 4b04 	ldr.w	r4, [sp], #4
87800142:	f042 0202 	orr.w	r2, r2, #2
87800146:	605a      	str	r2, [r3, #4]
87800148:	681a      	ldr	r2, [r3, #0]
8780014a:	f042 0202 	orr.w	r2, r2, #2
8780014e:	601a      	str	r2, [r3, #0]
87800150:	4770      	bx	lr
87800152:	bf00      	nop

87800154 <beep_control>:
87800154:	2801      	cmp	r0, #1
87800156:	d009      	beq.n	8780016c <beep_control+0x18>
87800158:	b938      	cbnz	r0, 8780016a <beep_control+0x16>
8780015a:	f44f 4340 	mov.w	r3, #49152	; 0xc000
8780015e:	f2c0 230a 	movt	r3, #522	; 0x20a
87800162:	681a      	ldr	r2, [r3, #0]
87800164:	f042 0202 	orr.w	r2, r2, #2
87800168:	601a      	str	r2, [r3, #0]
8780016a:	4770      	bx	lr
8780016c:	f44f 4340 	mov.w	r3, #49152	; 0xc000
87800170:	f2c0 230a 	movt	r3, #522	; 0x20a
87800174:	681a      	ldr	r2, [r3, #0]
87800176:	f022 0202 	bic.w	r2, r2, #2
8780017a:	601a      	str	r2, [r3, #0]
8780017c:	4770      	bx	lr
8780017e:	bf00      	nop

87800180 <delay>:
87800180:	b082      	sub	sp, #8
87800182:	9001      	str	r0, [sp, #4]
87800184:	9b01      	ldr	r3, [sp, #4]
87800186:	1e5a      	subs	r2, r3, #1
87800188:	9201      	str	r2, [sp, #4]
8780018a:	2b00      	cmp	r3, #0
8780018c:	d1fa      	bne.n	87800184 <delay+0x4>
8780018e:	b002      	add	sp, #8
87800190:	4770      	bx	lr
87800192:	bf00      	nop

87800194 <delay_ms>:
87800194:	b082      	sub	sp, #8
87800196:	9001      	str	r0, [sp, #4]
87800198:	9b01      	ldr	r3, [sp, #4]
8780019a:	1e5a      	subs	r2, r3, #1
8780019c:	9201      	str	r2, [sp, #4]
8780019e:	b153      	cbz	r3, 878001b6 <delay_ms+0x22>
878001a0:	f240 73ff 	movw	r3, #2047	; 0x7ff
878001a4:	461a      	mov	r2, r3
878001a6:	3b01      	subs	r3, #1
878001a8:	2a00      	cmp	r2, #0
878001aa:	d1fb      	bne.n	878001a4 <delay_ms+0x10>
878001ac:	9b01      	ldr	r3, [sp, #4]
878001ae:	1e5a      	subs	r2, r3, #1
878001b0:	9201      	str	r2, [sp, #4]
878001b2:	2b00      	cmp	r3, #0
878001b4:	d1f4      	bne.n	878001a0 <delay_ms+0xc>
878001b6:	b002      	add	sp, #8
878001b8:	4770      	bx	lr
878001ba:	bf00      	nop

878001bc <clk_enable>:
878001bc:	f44f 4380 	mov.w	r3, #16384	; 0x4000
878001c0:	f04f 32ff 	mov.w	r2, #4294967295	; 0xffffffff
878001c4:	f2c0 230c 	movt	r3, #524	; 0x20c
878001c8:	66da      	str	r2, [r3, #108]	; 0x6c
878001ca:	4770      	bx	lr

878001cc <led_init>:
878001cc:	2168      	movs	r1, #104	; 0x68
878001ce:	f44f 723d 	mov.w	r2, #756	; 0x2f4
878001d2:	f44f 4340 	mov.w	r3, #49152	; 0xc000
878001d6:	b470      	push	{r4, r5, r6}
878001d8:	f2c0 2309 	movt	r3, #521	; 0x209
878001dc:	2605      	movs	r6, #5
878001de:	f241 05b0 	movw	r5, #4272	; 0x10b0
878001e2:	2408      	movs	r4, #8
878001e4:	f2c0 210e 	movt	r1, #526	; 0x20e
878001e8:	f2c0 220e 	movt	r2, #526	; 0x20e
878001ec:	2000      	movs	r0, #0
878001ee:	600e      	str	r6, [r1, #0]
878001f0:	6015      	str	r5, [r2, #0]
878001f2:	605c      	str	r4, [r3, #4]
878001f4:	6018      	str	r0, [r3, #0]
878001f6:	bc70      	pop	{r4, r5, r6}
878001f8:	4770      	bx	lr
878001fa:	bf00      	nop
878001fc:	0000      	movs	r0, r0
	...

87800200 <__main_from_arm>:
87800200:	e51ff004 	ldr	pc, [pc, #-4]	; 87800204 <__main_from_arm+0x4>
87800204:	87800065 	strhi	r0, [r0, r5, rrx]

Disassembly of section .comment:

00000000 <.comment>:
   0:	3a434347 	bcc	10d0d24 <_bss_start-0x8672f2dc>
   4:	694c2820 	stmdbvs	ip, {r5, fp, sp}^
   8:	6f72616e 	svcvs	0x0072616e
   c:	43434720 	movtmi	r4, #14112	; 0x3720
  10:	392e3420 	stmdbcc	lr!, {r5, sl, ip, sp}
  14:	3130322d 	teqcc	r0, sp, lsr #4
  18:	31302e37 	teqcc	r0, r7, lsr lr
  1c:	2e342029 	cdpcs	0, 3, cr2, cr4, cr9, {1}
  20:	00342e39 	eorseq	r2, r4, r9, lsr lr

Disassembly of section .ARM.attributes:

00000000 <.ARM.attributes>:
   0:	00003041 	andeq	r3, r0, r1, asr #32
   4:	61656100 	cmnvs	r5, r0, lsl #2
   8:	01006962 	tsteq	r0, r2, ror #18
   c:	00000026 	andeq	r0, r0, r6, lsr #32
  10:	412d3705 	teqmi	sp, r5, lsl #14
  14:	070a0600 	streq	r0, [sl, -r0, lsl #12]
  18:	09010841 	stmdbeq	r1, {r0, r6, fp}
  1c:	12040a02 	andne	r0, r4, #8192	; 0x2000
  20:	15011404 	strne	r1, [r1, #-1028]	; 0x404
  24:	18031701 	stmdane	r3, {r0, r8, r9, sl, ip}
  28:	1b021a01 	blne	86834 <_bss_start-0x877797cc>
  2c:	22011c03 	andcs	r1, r1, #768	; 0x300
  30:	地址 0x0000000000000030 越界。

